target datalayout = "e-m:e-p270:32:32-p271:32:32-p272:64:64-i64:64-i128:128-f80:128-n8:16:32:64-S128"
target triple = "x86_64-pc-linux-gnu"

%struct.Gia_Man_t_ = type { ptr, ptr, i32, i32, i32, i32, ptr, ptr, i32, i32, i32, ptr, ptr, %struct.Vec_Int_t_, %struct.Vec_Int_t_, i32, i32, i32, %struct.Vec_Int_t_, ptr, ptr, ptr, i32, i32, i32, i32, ptr, ptr, ptr, ptr, ptr, i32, i32, ptr, i32, ptr, ptr, ptr, ptr, ptr, ptr, ptr, ptr, ptr, ptr, ptr, ptr, ptr, ptr, ptr, ptr, ptr, ptr, %struct.Vec_Int_t_, %struct.Vec_Int_t_, ptr, ptr, ptr, ptr, ptr, ptr, ptr, ptr, ptr, ptr, ptr, ptr, ptr, ptr, ptr, ptr, ptr, ptr, ptr, ptr, ptr, i32, float, float, ptr, ptr, i32, ptr, ptr, ptr, ptr, ptr, ptr, ptr, ptr, ptr, ptr, ptr, ptr, ptr, ptr, ptr, i64, i64, ptr, ptr, i32, i32, i32, i32, i32, i32, i32, i32, i32, i32, i32, i32, ptr, ptr, ptr, ptr, ptr, ptr, ptr, ptr, i32, i32, i32, ptr, i32, i32, ptr, ptr, ptr, ptr, ptr, ptr, i32, i32, ptr, %struct.Vec_Int_t_, %struct.Vec_Int_t_, %struct.Vec_Int_t_, ptr, ptr, ptr, i32, i32, i32, i32, ptr, ptr, ptr, ptr, ptr }
%struct.Vec_Int_t_ = type { i32, i32, ptr }
%struct.Vec_Wrd_t_ = type { i32, i32, ptr }
%struct.Gia_Obj_t_ = type <{ i64, i32 }>

@Truth = internal global [8 x i64] [i64 -6148914691236517206, i64 -3689348814741910324, i64 -1085102592571150096, i64 -71777214294589696, i64 -281470681808896, i64 -4294967296, i64 0, i64 -1], align 16

; Function Attrs: inlinehint nounwind uwtable
define internal void @Vec_WrdGrow(ptr noundef %0, i32 noundef %1) #3 {
  %3 = alloca ptr, align 8
  %4 = alloca i32, align 4
  store ptr %0, ptr %3, align 8, !tbaa !55
  store i32 %1, ptr %4, align 4, !tbaa !54
  %5 = load ptr, ptr %3, align 8, !tbaa !55
  %6 = getelementptr inbounds nuw %struct.Vec_Wrd_t_, ptr %5, i32 0, i32 0
  %7 = load i32, ptr %6, align 8, !tbaa !59
  %8 = load i32, ptr %4, align 4, !tbaa !54
  %9 = icmp sge i32 %7, %8
  br i1 %9, label %10, label %11

10:                                               ; preds = %2
  br label %36

11:                                               ; preds = %2
  %12 = load ptr, ptr %3, align 8, !tbaa !55
  %13 = getelementptr inbounds nuw %struct.Vec_Wrd_t_, ptr %12, i32 0, i32 2
  %14 = load ptr, ptr %13, align 8, !tbaa !60
  %15 = icmp ne ptr %14, null
  br i1 %15, label %16, label %24

16:                                               ; preds = %11
  %17 = load ptr, ptr %3, align 8, !tbaa !55
  %18 = getelementptr inbounds nuw %struct.Vec_Wrd_t_, ptr %17, i32 0, i32 2
  %19 = load ptr, ptr %18, align 8, !tbaa !60
  %20 = load i32, ptr %4, align 4, !tbaa !54
  %21 = sext i32 %20 to i64
  %22 = mul i64 8, %21
  %23 = call ptr @realloc(ptr noundef %19, i64 noundef %22) #16
  br label %29

24:                                               ; preds = %11
  %25 = load i32, ptr %4, align 4, !tbaa !54
  %26 = sext i32 %25 to i64
  %27 = mul i64 8, %26
  %28 = call noalias ptr @malloc(i64 noundef %27) #14
  br label %29

29:                                               ; preds = %24, %16
  %30 = phi ptr [ %23, %16 ], [ %28, %24 ]
  %31 = load ptr, ptr %3, align 8, !tbaa !55
  %32 = getelementptr inbounds nuw %struct.Vec_Wrd_t_, ptr %31, i32 0, i32 2
  store ptr %30, ptr %32, align 8, !tbaa !60
  %33 = load i32, ptr %4, align 4, !tbaa !54
  %34 = load ptr, ptr %3, align 8, !tbaa !55
  %35 = getelementptr inbounds nuw %struct.Vec_Wrd_t_, ptr %34, i32 0, i32 0
  store i32 %33, ptr %35, align 8, !tbaa !59
  br label %36

36:                                               ; preds = %29, %10
  ret void
}

; Function Attrs: inlinehint nounwind uwtable
define internal i32 @Gia_ObjFaninC1(ptr noundef %0) #3 {
  %2 = alloca ptr, align 8
  store ptr %0, ptr %2, align 8, !tbaa !77
  %3 = load ptr, ptr %2, align 8, !tbaa !77
  %4 = load i64, ptr %3, align 4
  %5 = lshr i64 %4, 61
  %6 = and i64 %5, 1
  %7 = trunc i64 %6 to i32
  ret i32 %7
}

; Function Attrs: inlinehint nounwind uwtable
define internal i32 @Gia_ObjFaninC0(ptr noundef %0) #3 {
  %2 = alloca ptr, align 8
  store ptr %0, ptr %2, align 8, !tbaa !77
  %3 = load ptr, ptr %2, align 8, !tbaa !77
  %4 = load i64, ptr %3, align 4
  %5 = lshr i64 %4, 29
  %6 = and i64 %5, 1
  %7 = trunc i64 %6 to i32
  ret i32 %7
}

; Function Attrs: inlinehint nounwind uwtable
define internal i32 @Gia_ObjFaninId1(ptr noundef %0, i32 noundef %1) #3 {
  %3 = alloca ptr, align 8
  %4 = alloca i32, align 4
  store ptr %0, ptr %3, align 8, !tbaa !77
  store i32 %1, ptr %4, align 4, !tbaa !54
  %5 = load i32, ptr %4, align 4, !tbaa !54
  %6 = load ptr, ptr %3, align 8, !tbaa !77
  %7 = load i64, ptr %6, align 4
  %8 = lshr i64 %7, 32
  %9 = and i64 %8, 536870911
  %10 = trunc i64 %9 to i32
  %11 = sub nsw i32 %5, %10
  ret i32 %11
}

; Function Attrs: inlinehint nounwind uwtable
define internal i64 @Vec_WrdEntry(ptr noundef %0, i32 noundef %1) #3 {
  %3 = alloca ptr, align 8
  %4 = alloca i32, align 4
  store ptr %0, ptr %3, align 8, !tbaa !55
  store i32 %1, ptr %4, align 4, !tbaa !54
  %5 = load ptr, ptr %3, align 8, !tbaa !55
  %6 = getelementptr inbounds nuw %struct.Vec_Wrd_t_, ptr %5, i32 0, i32 2
  %7 = load ptr, ptr %6, align 8, !tbaa !60
  %8 = load i32, ptr %4, align 4, !tbaa !54
  %9 = sext i32 %8 to i64
  %10 = getelementptr inbounds i64, ptr %7, i64 %9
  %11 = load i64, ptr %10, align 8, !tbaa !61
  ret i64 %11
}

; Function Attrs: inlinehint nounwind uwtable
define internal i32 @Gia_ObjFaninId0(ptr noundef %0, i32 noundef %1) #3 {
  %3 = alloca ptr, align 8
  %4 = alloca i32, align 4
  store ptr %0, ptr %3, align 8, !tbaa !77
  store i32 %1, ptr %4, align 4, !tbaa !54
  %5 = load i32, ptr %4, align 4, !tbaa !54
  %6 = load ptr, ptr %3, align 8, !tbaa !77
  %7 = load i64, ptr %6, align 4
  %8 = and i64 %7, 536870911
  %9 = trunc i64 %8 to i32
  %10 = sub nsw i32 %5, %9
  ret i32 %10
}

; Function Attrs: inlinehint nounwind uwtable
define internal ptr @Gia_ManObj(ptr noundef %0, i32 noundef %1) #3 {
  %3 = alloca ptr, align 8
  %4 = alloca i32, align 4
  store ptr %0, ptr %3, align 8, !tbaa !3
  store i32 %1, ptr %4, align 4, !tbaa !54
  %5 = load ptr, ptr %3, align 8, !tbaa !3
  %6 = getelementptr inbounds nuw %struct.Gia_Man_t_, ptr %5, i32 0, i32 6
  %7 = load ptr, ptr %6, align 8, !tbaa !79
  %8 = load i32, ptr %4, align 4, !tbaa !54
  %9 = sext i32 %8 to i64
  %10 = getelementptr inbounds %struct.Gia_Obj_t_, ptr %7, i64 %9
  ret ptr %10
}

; Function Attrs: inlinehint nounwind uwtable
define internal i32 @Vec_IntSize(ptr noundef %0) #3 {
  %2 = alloca ptr, align 8
  store ptr %0, ptr %2, align 8, !tbaa !62
  %3 = load ptr, ptr %2, align 8, !tbaa !62
  %4 = getelementptr inbounds nuw %struct.Vec_Int_t_, ptr %3, i32 0, i32 1
  %5 = load i32, ptr %4, align 4, !tbaa !63
  ret i32 %5
}

; Function Attrs: inlinehint nounwind uwtable
define internal void @Vec_WrdPush(ptr noundef %0, i64 noundef %1) #3 {
  %3 = alloca ptr, align 8
  %4 = alloca i64, align 8
  store ptr %0, ptr %3, align 8, !tbaa !55
  store i64 %1, ptr %4, align 8, !tbaa !61
  %5 = load ptr, ptr %3, align 8, !tbaa !55
  %6 = getelementptr inbounds nuw %struct.Vec_Wrd_t_, ptr %5, i32 0, i32 1
  %7 = load i32, ptr %6, align 4, !tbaa !56
  %8 = load ptr, ptr %3, align 8, !tbaa !55
  %9 = getelementptr inbounds nuw %struct.Vec_Wrd_t_, ptr %8, i32 0, i32 0
  %10 = load i32, ptr %9, align 8, !tbaa !59
  %11 = icmp eq i32 %7, %10
  br i1 %11, label %12, label %26

12:                                               ; preds = %2
  %13 = load ptr, ptr %3, align 8, !tbaa !55
  %14 = getelementptr inbounds nuw %struct.Vec_Wrd_t_, ptr %13, i32 0, i32 0
  %15 = load i32, ptr %14, align 8, !tbaa !59
  %16 = icmp slt i32 %15, 16
  br i1 %16, label %17, label %19

17:                                               ; preds = %12
  %18 = load ptr, ptr %3, align 8, !tbaa !55
  call void @Vec_WrdGrow(ptr noundef %18, i32 noundef 16)
  br label %25

19:                                               ; preds = %12
  %20 = load ptr, ptr %3, align 8, !tbaa !55
  %21 = load ptr, ptr %3, align 8, !tbaa !55
  %22 = getelementptr inbounds nuw %struct.Vec_Wrd_t_, ptr %21, i32 0, i32 0
  %23 = load i32, ptr %22, align 8, !tbaa !59
  %24 = mul nsw i32 2, %23
  call void @Vec_WrdGrow(ptr noundef %20, i32 noundef %24)
  br label %25

25:                                               ; preds = %19, %17
  br label %26

26:                                               ; preds = %25, %2
  %27 = load i64, ptr %4, align 8, !tbaa !61
  %28 = load ptr, ptr %3, align 8, !tbaa !55
  %29 = getelementptr inbounds nuw %struct.Vec_Wrd_t_, ptr %28, i32 0, i32 2
  %30 = load ptr, ptr %29, align 8, !tbaa !60
  %31 = load ptr, ptr %3, align 8, !tbaa !55
  %32 = getelementptr inbounds nuw %struct.Vec_Wrd_t_, ptr %31, i32 0, i32 1
  %33 = load i32, ptr %32, align 4, !tbaa !56
  %34 = add nsw i32 %33, 1
  store i32 %34, ptr %32, align 4, !tbaa !56
  %35 = sext i32 %33 to i64
  %36 = getelementptr inbounds i64, ptr %30, i64 %35
  store i64 %27, ptr %36, align 8, !tbaa !61
  ret void
}

; Function Attrs: inlinehint nounwind uwtable
define internal void @Vec_WrdWriteEntry(ptr noundef %0, i32 noundef %1, i64 noundef %2) #3 {
  %4 = alloca ptr, align 8
  %5 = alloca i32, align 4
  %6 = alloca i64, align 8
  store ptr %0, ptr %4, align 8, !tbaa !55
  store i32 %1, ptr %5, align 4, !tbaa !54
  store i64 %2, ptr %6, align 8, !tbaa !61
  %7 = load i64, ptr %6, align 8, !tbaa !61
  %8 = load ptr, ptr %4, align 8, !tbaa !55
  %9 = getelementptr inbounds nuw %struct.Vec_Wrd_t_, ptr %8, i32 0, i32 2
  %10 = load ptr, ptr %9, align 8, !tbaa !60
  %11 = load i32, ptr %5, align 4, !tbaa !54
  %12 = sext i32 %11 to i64
  %13 = getelementptr inbounds i64, ptr %10, i64 %12
  store i64 %7, ptr %13, align 8, !tbaa !61
  ret void
}

; Function Attrs: inlinehint nounwind uwtable
define internal i32 @Vec_IntEntry(ptr noundef %0, i32 noundef %1) #3 {
  %3 = alloca ptr, align 8
  %4 = alloca i32, align 4
  store ptr %0, ptr %3, align 8, !tbaa !62
  store i32 %1, ptr %4, align 4, !tbaa !54
  %5 = load ptr, ptr %3, align 8, !tbaa !62
  %6 = getelementptr inbounds nuw %struct.Vec_Int_t_, ptr %5, i32 0, i32 2
  %7 = load ptr, ptr %6, align 8, !tbaa !64
  %8 = load i32, ptr %4, align 4, !tbaa !54
  %9 = sext i32 %8 to i64
  %10 = getelementptr inbounds i32, ptr %7, i64 %9
  %11 = load i32, ptr %10, align 4, !tbaa !54
  ret i32 %11
}

; Function Attrs: inlinehint nounwind uwtable
define internal void @Vec_WrdClear(ptr noundef %0) #3 {
  %2 = alloca ptr, align 8
  store ptr %0, ptr %2, align 8, !tbaa !55
  %3 = load ptr, ptr %2, align 8, !tbaa !55
  %4 = getelementptr inbounds nuw %struct.Vec_Wrd_t_, ptr %3, i32 0, i32 1
  store i32 0, ptr %4, align 4, !tbaa !56
  ret void
}

; Function Attrs: nounwind uwtable
define void @Shr_ManComputeTruths(ptr noundef %0, i32 noundef %1, ptr noundef %2, ptr noundef %3, ptr noundef %4) #0 {
  %6 = alloca ptr, align 8
  %7 = alloca i32, align 4
  %8 = alloca ptr, align 8
  %9 = alloca ptr, align 8
  %10 = alloca ptr, align 8
  %11 = alloca ptr, align 8
  %12 = alloca i64, align 8
  %13 = alloca i64, align 8
  %14 = alloca i32, align 4
  %15 = alloca i32, align 4
  store ptr %0, ptr %6, align 8, !tbaa !3
  store i32 %1, ptr %7, align 4, !tbaa !54
  store ptr %2, ptr %8, align 8, !tbaa !62
  store ptr %3, ptr %9, align 8, !tbaa !55
  store ptr %4, ptr %10, align 8, !tbaa !55
  call void @llvm.lifetime.start.p0(i64 8, ptr %11) #12
  call void @llvm.lifetime.start.p0(i64 8, ptr %12) #12
  call void @llvm.lifetime.start.p0(i64 8, ptr %13) #12
  call void @llvm.lifetime.start.p0(i64 4, ptr %14) #12
  call void @llvm.lifetime.start.p0(i64 4, ptr %15) #12
  %16 = load ptr, ptr %9, align 8, !tbaa !55
  call void @Vec_WrdClear(ptr noundef %16)
  store i32 0, ptr %14, align 4, !tbaa !54
  br label %17

17:                                               ; preds = %39, %5
  %18 = load i32, ptr %14, align 4, !tbaa !54
  %19 = load i32, ptr %7, align 4, !tbaa !54
  %20 = icmp slt i32 %18, %19
  br i1 %20, label %21, label %25

21:                                               ; preds = %17
  %22 = load ptr, ptr %8, align 8, !tbaa !62
  %23 = load i32, ptr %14, align 4, !tbaa !54
  %24 = call i32 @Vec_IntEntry(ptr noundef %22, i32 noundef %23)
  store i32 %24, ptr %15, align 4, !tbaa !54
  br label %25

25:                                               ; preds = %21, %17
  %26 = phi i1 [ false, %17 ], [ true, %21 ]
  br i1 %26, label %27, label %42

27:                                               ; preds = %25
  %28 = load ptr, ptr %10, align 8, !tbaa !55
  %29 = load i32, ptr %15, align 4, !tbaa !54
  %30 = load i32, ptr %14, align 4, !tbaa !54
  %31 = sext i32 %30 to i64
  %32 = getelementptr inbounds [8 x i64], ptr @Truth, i64 0, i64 %31
  %33 = load i64, ptr %32, align 8, !tbaa !61
  call void @Vec_WrdWriteEntry(ptr noundef %28, i32 noundef %29, i64 noundef %33)
  %34 = load ptr, ptr %9, align 8, !tbaa !55
  %35 = load i32, ptr %14, align 4, !tbaa !54
  %36 = sext i32 %35 to i64
  %37 = getelementptr inbounds [8 x i64], ptr @Truth, i64 0, i64 %36
  %38 = load i64, ptr %37, align 8, !tbaa !61
  call void @Vec_WrdPush(ptr noundef %34, i64 noundef %38)
  br label %39

39:                                               ; preds = %27
  %40 = load i32, ptr %14, align 4, !tbaa !54
  %41 = add nsw i32 %40, 1
  store i32 %41, ptr %14, align 4, !tbaa !54
  br label %17, !llvm.loop !84

42:                                               ; preds = %25
  %43 = load i32, ptr %7, align 4, !tbaa !54
  store i32 %43, ptr %14, align 4, !tbaa !54
  br label %44

44:                                               ; preds = %92, %42
  %45 = load i32, ptr %14, align 4, !tbaa !54
  %46 = load ptr, ptr %8, align 8, !tbaa !62
  %47 = call i32 @Vec_IntSize(ptr noundef %46)
  %48 = icmp slt i32 %45, %47
  br i1 %48, label %49, label %53

49:                                               ; preds = %44
  %50 = load ptr, ptr %8, align 8, !tbaa !62
  %51 = load i32, ptr %14, align 4, !tbaa !54
  %52 = call i32 @Vec_IntEntry(ptr noundef %50, i32 noundef %51)
  store i32 %52, ptr %15, align 4, !tbaa !54
  br label %53

53:                                               ; preds = %49, %44
  %54 = phi i1 [ false, %44 ], [ true, %49 ]
  br i1 %54, label %55, label %95

55:                                               ; preds = %53
  %56 = load ptr, ptr %6, align 8, !tbaa !3
  %57 = load i32, ptr %15, align 4, !tbaa !54
  %58 = call ptr @Gia_ManObj(ptr noundef %56, i32 noundef %57)
  store ptr %58, ptr %11, align 8, !tbaa !77
  %59 = load ptr, ptr %10, align 8, !tbaa !55
  %60 = load ptr, ptr %11, align 8, !tbaa !77
  %61 = load i32, ptr %15, align 4, !tbaa !54
  %62 = call i32 @Gia_ObjFaninId0(ptr noundef %60, i32 noundef %61)
  %63 = call i64 @Vec_WrdEntry(ptr noundef %59, i32 noundef %62)
  store i64 %63, ptr %12, align 8, !tbaa !61
  %64 = load ptr, ptr %10, align 8, !tbaa !55
  %65 = load ptr, ptr %11, align 8, !tbaa !77
  %66 = load i32, ptr %15, align 4, !tbaa !54
  %67 = call i32 @Gia_ObjFaninId1(ptr noundef %65, i32 noundef %66)
  %68 = call i64 @Vec_WrdEntry(ptr noundef %64, i32 noundef %67)
  store i64 %68, ptr %13, align 8, !tbaa !61
  %69 = load ptr, ptr %11, align 8, !tbaa !77
  %70 = call i32 @Gia_ObjFaninC0(ptr noundef %69)
  %71 = icmp ne i32 %70, 0
  br i1 %71, label %72, label %75

72:                                               ; preds = %55
  %73 = load i64, ptr %12, align 8, !tbaa !61
  %74 = xor i64 %73, -1
  store i64 %74, ptr %12, align 8, !tbaa !61
  br label %75

75:                                               ; preds = %72, %55
  %76 = load ptr, ptr %11, align 8, !tbaa !77
  %77 = call i32 @Gia_ObjFaninC1(ptr noundef %76)
  %78 = icmp ne i32 %77, 0
  br i1 %78, label %79, label %82

79:                                               ; preds = %75
  %80 = load i64, ptr %13, align 8, !tbaa !61
  %81 = xor i64 %80, -1
  store i64 %81, ptr %13, align 8, !tbaa !61
  br label %82

82:                                               ; preds = %79, %75
  %83 = load ptr, ptr %10, align 8, !tbaa !55
  %84 = load i32, ptr %15, align 4, !tbaa !54
  %85 = load i64, ptr %12, align 8, !tbaa !61
  %86 = load i64, ptr %13, align 8, !tbaa !61
  %87 = and i64 %85, %86
  call void @Vec_WrdWriteEntry(ptr noundef %83, i32 noundef %84, i64 noundef %87)
  %88 = load ptr, ptr %9, align 8, !tbaa !55
  %89 = load i64, ptr %12, align 8, !tbaa !61
  %90 = load i64, ptr %13, align 8, !tbaa !61
  %91 = and i64 %89, %90
  call void @Vec_WrdPush(ptr noundef %88, i64 noundef %91)
  br label %92

92:                                               ; preds = %82
  %93 = load i32, ptr %14, align 4, !tbaa !54
  %94 = add nsw i32 %93, 1
  store i32 %94, ptr %14, align 4, !tbaa !54
  br label %44, !llvm.loop !85

95:                                               ; preds = %53
  call void @llvm.lifetime.end.p0(i64 4, ptr %15) #12
  call void @llvm.lifetime.end.p0(i64 4, ptr %14) #12
  call void @llvm.lifetime.end.p0(i64 8, ptr %13) #12
  call void @llvm.lifetime.end.p0(i64 8, ptr %12) #12
  call void @llvm.lifetime.end.p0(i64 8, ptr %11) #12
  ret void
}