; Function Attrs: nounwind uwtable
define void @Shr_ManComputeTruths(ptr noundef readonly captures(none) %0, i32 noundef %1, ptr noundef readonly captures(none) %2, ptr noundef captures(none) initializes((4, 8)) %3, ptr noundef readonly captures(none) %4) local_unnamed_addr #0 {
  %6 = getelementptr inbounds nuw i8, ptr %3, i64 4
  store i32 0, ptr %6, align 4, !tbaa !41
  %7 = icmp sgt i32 %1, 0
  br i1 %7, label %.lr.ph, label %.critedge.preheader

.lr.ph:                                           ; preds = %5
  %8 = getelementptr i8, ptr %2, i64 8
  %9 = getelementptr i8, ptr %4, i64 8
  %.phi.trans.insert.i = getelementptr inbounds nuw i8, ptr %3, i64 8
  %wide.trip.count = zext nneg i32 %1 to i64
  %.pre = load i32, ptr %3, align 8, !tbaa !36
  br label %17

.critedge.preheader:                              ; preds = %Vec_WrdPush.exit, %5
  %10 = phi i32 [ 0, %5 ], [ %50, %Vec_WrdPush.exit ]
  %11 = getelementptr i8, ptr %2, i64 4
  %.val61 = load i32, ptr %11, align 4, !tbaa !45
  %12 = icmp slt i32 %1, %.val61
  br i1 %12, label %.lr.ph63, label %.critedge2

.lr.ph63:                                         ; preds = %.critedge.preheader
  %13 = getelementptr i8, ptr %2, i64 8
  %14 = getelementptr i8, ptr %0, i64 32
  %15 = getelementptr i8, ptr %4, i64 8
  %.phi.trans.insert.i53 = getelementptr inbounds nuw i8, ptr %3, i64 8
  %16 = sext i32 %1 to i64
  %.pre68 = load i32, ptr %3, align 8, !tbaa !36
  br label %53

17:                                               ; preds = %.lr.ph, %Vec_WrdPush.exit
  %18 = phi i32 [ %.pre, %.lr.ph ], [ %47, %Vec_WrdPush.exit ]
  %19 = phi i32 [ 0, %.lr.ph ], [ %50, %Vec_WrdPush.exit ]
  %indvars.iv = phi i64 [ 0, %.lr.ph ], [ %indvars.iv.next, %Vec_WrdPush.exit ]
  %.val42 = load ptr, ptr %8, align 8, !tbaa !44
  %20 = getelementptr inbounds nuw i32, ptr %.val42, i64 %indvars.iv
  %21 = load i32, ptr %20, align 4, !tbaa !64
  %22 = getelementptr inbounds nuw [8 x i64], ptr @Truth, i64 0, i64 %indvars.iv
  %23 = load i64, ptr %22, align 8, !tbaa !42
  %.val51 = load ptr, ptr %9, align 8, !tbaa !39
  %24 = sext i32 %21 to i64
  %25 = getelementptr inbounds i64, ptr %.val51, i64 %24
  store i64 %23, ptr %25, align 8, !tbaa !42
  %26 = icmp eq i32 %19, %18
  br i1 %26, label %27, label %.Vec_WrdGrow.exit10_crit_edge.i

.Vec_WrdGrow.exit10_crit_edge.i:                  ; preds = %17
  %.pre.i = load ptr, ptr %.phi.trans.insert.i, align 8, !tbaa !39
  br label %Vec_WrdPush.exit

27:                                               ; preds = %17
  %28 = icmp slt i32 %18, 16
  br i1 %28, label %29, label %36

29:                                               ; preds = %27
  %30 = load ptr, ptr %.phi.trans.insert.i, align 8, !tbaa !39
  %.not9.i.i = icmp eq ptr %30, null
  br i1 %.not9.i.i, label %33, label %31

31:                                               ; preds = %29
  %32 = tail call dereferenceable_or_null(128) ptr @realloc(ptr noundef nonnull %30, i64 noundef 128) #22
  br label %Vec_WrdGrow.exit.i

33:                                               ; preds = %29
  %34 = tail call noalias dereferenceable_or_null(128) ptr @malloc(i64 noundef 128) #19
  br label %Vec_WrdGrow.exit.i

Vec_WrdGrow.exit.i:                               ; preds = %33, %31
  %35 = phi ptr [ %32, %31 ], [ %34, %33 ]
  store ptr %35, ptr %.phi.trans.insert.i, align 8, !tbaa !39
  store i32 16, ptr %3, align 8, !tbaa !36
  br label %Vec_WrdPush.exit

36:                                               ; preds = %27
  %37 = shl nuw nsw i32 %18, 1
  %38 = load ptr, ptr %.phi.trans.insert.i, align 8, !tbaa !39
  %.not9.i9.i = icmp eq ptr %38, null
  %39 = zext nneg i32 %37 to i64
  %40 = shl nuw nsw i64 %39, 3
  br i1 %.not9.i9.i, label %43, label %41

41:                                               ; preds = %36
  %42 = tail call ptr @realloc(ptr noundef nonnull %38, i64 noundef %40) #22
  br label %45

43:                                               ; preds = %36
  %44 = tail call noalias ptr @malloc(i64 noundef %40) #19
  br label %45

45:                                               ; preds = %43, %41
  %46 = phi ptr [ %42, %41 ], [ %44, %43 ]
  store ptr %46, ptr %.phi.trans.insert.i, align 8, !tbaa !39
  store i32 %37, ptr %3, align 8, !tbaa !36
  br label %Vec_WrdPush.exit

Vec_WrdPush.exit:                                 ; preds = %.Vec_WrdGrow.exit10_crit_edge.i, %Vec_WrdGrow.exit.i, %45
  %47 = phi i32 [ %18, %.Vec_WrdGrow.exit10_crit_edge.i ], [ %37, %45 ], [ 16, %Vec_WrdGrow.exit.i ]
  %48 = phi ptr [ %.pre.i, %.Vec_WrdGrow.exit10_crit_edge.i ], [ %46, %45 ], [ %35, %Vec_WrdGrow.exit.i ]
  %49 = load i32, ptr %6, align 4, !tbaa !41
  %50 = add nsw i32 %49, 1
  store i32 %50, ptr %6, align 4, !tbaa !41
  %51 = sext i32 %49 to i64
  %52 = getelementptr inbounds i64, ptr %48, i64 %51
  store i64 %23, ptr %52, align 8, !tbaa !42
  %indvars.iv.next = add nuw nsw i64 %indvars.iv, 1
  %exitcond.not = icmp eq i64 %indvars.iv.next, %wide.trip.count
  br i1 %exitcond.not, label %.critedge.preheader, label %17, !llvm.loop !73

53:                                               ; preds = %.lr.ph63, %Vec_WrdPush.exit58
  %54 = phi i32 [ %.pre68, %.lr.ph63 ], [ %99, %Vec_WrdPush.exit58 ]
  %55 = phi i32 [ %10, %.lr.ph63 ], [ %102, %Vec_WrdPush.exit58 ]
  %indvars.iv65 = phi i64 [ %16, %.lr.ph63 ], [ %indvars.iv.next66, %Vec_WrdPush.exit58 ]
  %.val41 = load ptr, ptr %13, align 8, !tbaa !44
  %56 = getelementptr inbounds i32, ptr %.val41, i64 %indvars.iv65
  %57 = load i32, ptr %56, align 4, !tbaa !64
  %.val43 = load ptr, ptr %14, align 8, !tbaa !67
  %58 = sext i32 %57 to i64
  %59 = getelementptr inbounds %struct.Gia_Obj_t_, ptr %.val43, i64 %58
  %.val44 = load i64, ptr %59, align 4
  %60 = trunc i64 %.val44 to i32
  %61 = and i32 %60, 536870911
  %62 = sub nsw i32 %57, %61
  %.val47 = load ptr, ptr %15, align 8, !tbaa !39
  %63 = sext i32 %62 to i64
  %64 = getelementptr inbounds i64, ptr %.val47, i64 %63
  %65 = load i64, ptr %64, align 8, !tbaa !42
  %66 = lshr i64 %.val44, 32
  %67 = trunc nuw i64 %66 to i32
  %68 = and i32 %67, 536870911
  %69 = sub nsw i32 %57, %68
  %70 = sext i32 %69 to i64
  %71 = getelementptr inbounds i64, ptr %.val47, i64 %70
  %72 = load i64, ptr %71, align 8, !tbaa !42
  %73 = shl i32 %60, 2
  %sext = ashr i32 %73, 31
  %74 = sext i32 %sext to i64
  %spec.select = xor i64 %65, %74
  %75 = shl i64 %.val44, 2
  %sext59 = ashr i64 %75, 63
  %.037 = xor i64 %72, %sext59
  %76 = and i64 %spec.select, %.037
  %77 = getelementptr inbounds i64, ptr %.val47, i64 %58
  store i64 %76, ptr %77, align 8, !tbaa !42
  %78 = icmp eq i32 %55, %54
  br i1 %78, label %79, label %.Vec_WrdGrow.exit10_crit_edge.i52

.Vec_WrdGrow.exit10_crit_edge.i52:                ; preds = %53
  %.pre.i54 = load ptr, ptr %.phi.trans.insert.i53, align 8, !tbaa !39
  br label %Vec_WrdPush.exit58

79:                                               ; preds = %53
  %80 = icmp slt i32 %54, 16
  br i1 %80, label %81, label %88

81:                                               ; preds = %79
  %82 = load ptr, ptr %.phi.trans.insert.i53, align 8, !tbaa !39
  %.not9.i.i56 = icmp eq ptr %82, null
  br i1 %.not9.i.i56, label %85, label %83

83:                                               ; preds = %81
  %84 = tail call dereferenceable_or_null(128) ptr @realloc(ptr noundef nonnull %82, i64 noundef 128) #22
  br label %Vec_WrdGrow.exit.i57

85:                                               ; preds = %81
  %86 = tail call noalias dereferenceable_or_null(128) ptr @malloc(i64 noundef 128) #19
  br label %Vec_WrdGrow.exit.i57

Vec_WrdGrow.exit.i57:                             ; preds = %85, %83
  %87 = phi ptr [ %84, %83 ], [ %86, %85 ]
  store ptr %87, ptr %.phi.trans.insert.i53, align 8, !tbaa !39
  store i32 16, ptr %3, align 8, !tbaa !36
  br label %Vec_WrdPush.exit58

88:                                               ; preds = %79
  %89 = shl nuw nsw i32 %54, 1
  %90 = load ptr, ptr %.phi.trans.insert.i53, align 8, !tbaa !39
  %.not9.i9.i55 = icmp eq ptr %90, null
  %91 = zext nneg i32 %89 to i64
  %92 = shl nuw nsw i64 %91, 3
  br i1 %.not9.i9.i55, label %95, label %93

93:                                               ; preds = %88
  %94 = tail call ptr @realloc(ptr noundef nonnull %90, i64 noundef %92) #22
  br label %97

95:                                               ; preds = %88
  %96 = tail call noalias ptr @malloc(i64 noundef %92) #19
  br label %97

97:                                               ; preds = %95, %93
  %98 = phi ptr [ %94, %93 ], [ %96, %95 ]
  store ptr %98, ptr %.phi.trans.insert.i53, align 8, !tbaa !39
  store i32 %89, ptr %3, align 8, !tbaa !36
  br label %Vec_WrdPush.exit58

Vec_WrdPush.exit58:                               ; preds = %.Vec_WrdGrow.exit10_crit_edge.i52, %Vec_WrdGrow.exit.i57, %97
  %99 = phi i32 [ %54, %.Vec_WrdGrow.exit10_crit_edge.i52 ], [ %89, %97 ], [ 16, %Vec_WrdGrow.exit.i57 ]
  %100 = phi ptr [ %.pre.i54, %.Vec_WrdGrow.exit10_crit_edge.i52 ], [ %98, %97 ], [ %87, %Vec_WrdGrow.exit.i57 ]
  %101 = load i32, ptr %6, align 4, !tbaa !41
  %102 = add nsw i32 %101, 1
  store i32 %102, ptr %6, align 4, !tbaa !41
  %103 = sext i32 %101 to i64
  %104 = getelementptr inbounds i64, ptr %100, i64 %103
  store i64 %76, ptr %104, align 8, !tbaa !42
  %indvars.iv.next66 = add nsw i64 %indvars.iv65, 1
  %.val = load i32, ptr %11, align 4, !tbaa !45
  %105 = sext i32 %.val to i64
  %106 = icmp slt i64 %indvars.iv.next66, %105
  br i1 %106, label %53, label %.critedge2, !llvm.loop !74

.critedge2:                                       ; preds = %Vec_WrdPush.exit58, %.critedge.preheader
  ret void
}